target datalayout = "e-m:e-p270:32:32-p271:32:32-p272:64:64-i64:64-i128:128-f80:128-n8:16:32:64-S128"
target triple = "x86_64-pc-linux-gnu"

%struct.PlatformTarget = type { ptr, i32, ptr, ptr, i32, i32, i32, i32, i32, i32, i32, [7 x %struct.AlignData], [7 x %struct.AlignData], [7 x %struct.AlignData], i32, i16, %union.anon.88, i8, i8, i8, i8, i8, i8, i8, i8, i8, i8, %struct.AlignData, i32, i32, i32, i32, i32, i32, i32, i32, i32, i32, i32, i32, i32, i32, i32, i32, ptr }
%union.anon.88 = type { %struct.anon.90 }
%struct.anon.90 = type { %struct.X86Features, i32, i32 }
%struct.X86Features = type { [2 x i64], ptr }
%struct.AlignData = type { i32, i32 }
%struct.Type_ = type { i32, ptr, ptr, ptr, %union.anon.85, ptr, ptr, %union.anon.87 }
%union.anon.85 = type { ptr }
%union.anon.87 = type { %struct.TypeFunction }
%struct.TypeFunction = type { ptr, ptr, ptr }
%struct.Decl_ = type { ptr, ptr, %union.SourceSpan, i64, %union.anon.5, i32, %union.anon.6, i64, ptr, ptr, ptr, %union.anon.7 }
%union.SourceSpan = type { i64 }
%union.anon.5 = type { ptr }
%union.anon.6 = type { i16 }
%union.anon.7 = type { %struct.FuncDecl }
%struct.FuncDecl = type { i32, [4 x i8], %struct.Signature_, i32, i32, %union.anon.14 }
%struct.Signature_ = type <{ %struct.CalleeAttributes, i16, i8, i32, i32, [4 x i8], ptr }>
%struct.CalleeAttributes = type { i8 }
%union.anon.14 = type { %struct.anon.15 }
%struct.anon.15 = type { i16, %union.anon.16 }
%union.anon.16 = type { ptr }
%struct.Regs = type { i32, i32 }
%struct.ABIArgInfo_ = type { i32, i8, %struct.anon, %union.anon }
%struct.anon = type { i8 }
%union.anon = type { %struct.anon.2 }
%struct.anon.2 = type { i8, i8, ptr, ptr }

@platform_target = external global %struct.PlatformTarget, align 8
@type_void = external global ptr, align 8

; Function Attrs: nounwind uwtable
define internal ptr @create_indirect_return_x86(ptr noundef %0, ptr noundef %1) #0 {
  %3 = alloca ptr, align 8
  %4 = alloca ptr, align 8
  %5 = alloca ptr, align 8
  %6 = alloca ptr, align 8
  store ptr %0, ptr %4, align 8
  store ptr %1, ptr %5, align 8
  %7 = load ptr, ptr %4, align 8
  %8 = call ptr @abi_arg_new_indirect_not_by_val(ptr noundef %7)
  store ptr %8, ptr %6, align 8
  %9 = load ptr, ptr %5, align 8
  %10 = getelementptr inbounds %struct.Regs, ptr %9, i32 0, i32 0
  %11 = load i32, ptr %10, align 4
  %12 = icmp ne i32 %11, 0
  br i1 %12, label %15, label %13

13:                                               ; preds = %2
  %14 = load ptr, ptr %6, align 8
  store ptr %14, ptr %3, align 8
  br label %33

15:                                               ; preds = %2
  %16 = load ptr, ptr %5, align 8
  %17 = getelementptr inbounds %struct.Regs, ptr %16, i32 0, i32 0
  %18 = load i32, ptr %17, align 4
  %19 = add i32 %18, -1
  store i32 %19, ptr %17, align 4
  %20 = load i8, ptr getelementptr inbounds (%struct.PlatformTarget, ptr @platform_target, i32 0, i32 16), align 8
  %21 = lshr i8 %20, 2
  %22 = and i8 %21, 1
  %23 = trunc i8 %22 to i1
  br i1 %23, label %24, label %26

24:                                               ; preds = %15
  %25 = load ptr, ptr %6, align 8
  store ptr %25, ptr %3, align 8
  br label %33

26:                                               ; preds = %15
  %27 = load ptr, ptr %6, align 8
  %28 = getelementptr inbounds %struct.ABIArgInfo_, ptr %27, i32 0, i32 2
  %29 = load i8, ptr %28, align 1
  %30 = and i8 %29, -2
  %31 = or i8 %30, 1
  store i8 %31, ptr %28, align 1
  %32 = load ptr, ptr %6, align 8
  store ptr %32, ptr %3, align 8
  br label %33

33:                                               ; preds = %26, %24, %13
  %34 = load ptr, ptr %3, align 8
  ret ptr %34
}

; Function Attrs: nounwind uwtable
define dso_local ptr @x86_classify_return(i32 noundef %0, ptr noundef %1, ptr noundef %2) #0 {
  %4 = alloca ptr, align 8
  %5 = alloca i32, align 4
  %6 = alloca ptr, align 8
  %7 = alloca i32, align 4
  %8 = alloca ptr, align 8
  %9 = alloca ptr, align 8
  %10 = alloca i32, align 4
  %11 = alloca ptr, align 8
  %12 = alloca i32, align 4
  %13 = alloca ptr, align 8
  %14 = alloca i32, align 4
  %15 = alloca ptr, align 8
  %16 = alloca ptr, align 8
  %17 = alloca i32, align 4
  %18 = alloca ptr, align 8
  %19 = alloca ptr, align 8
  %20 = alloca ptr, align 8
  %21 = alloca i32, align 4
  %22 = alloca ptr, align 8
  store i32 %0, ptr %17, align 4
  store ptr %1, ptr %18, align 8
  store ptr %2, ptr %19, align 8
  %23 = load ptr, ptr %19, align 8
  %24 = call ptr @type_lowering(ptr noundef %23)
  store ptr %24, ptr %19, align 8
  %25 = load ptr, ptr %19, align 8
  store ptr %25, ptr %15, align 8
  %26 = load ptr, ptr %15, align 8
  %27 = getelementptr inbounds %struct.Type_, ptr %26, i32 0, i32 1
  %28 = load ptr, ptr %27, align 8
  %29 = load ptr, ptr @type_void, align 8
  %30 = icmp eq ptr %28, %29
  br i1 %30, label %31, label %33

31:                                               ; preds = %3
  %32 = call ptr @abi_arg_ignore()
  store ptr %32, ptr %16, align 8
  br label %188

33:                                               ; preds = %3
  store ptr null, ptr %20, align 8
  store i32 0, ptr %21, align 4
  %34 = load ptr, ptr %19, align 8
  %35 = getelementptr inbounds %struct.Type_, ptr %34, i32 0, i32 0
  %36 = load i32, ptr %35, align 8
  %37 = icmp eq i32 %36, 37
  br i1 %37, label %38, label %40

38:                                               ; preds = %33
  %39 = call ptr @abi_arg_new_direct()
  store ptr %39, ptr %16, align 8
  br label %188

40:                                               ; preds = %33
  %41 = load ptr, ptr %19, align 8
  %42 = call zeroext i1 @type_is_abi_aggregate(ptr noundef %41)
  br i1 %42, label %43, label %127

43:                                               ; preds = %40
  %44 = load ptr, ptr %19, align 8
  store ptr %44, ptr %13, align 8
  %45 = load ptr, ptr %13, align 8
  %46 = load i32, ptr %45, align 8
  store i32 %46, ptr %14, align 4
  %47 = load i32, ptr %14, align 4
  %48 = icmp eq i32 %47, 31
  br i1 %48, label %49, label %54

49:                                               ; preds = %43
  %50 = load ptr, ptr %13, align 8
  %51 = getelementptr inbounds %struct.Type_, ptr %50, i32 0, i32 1
  %52 = load ptr, ptr %51, align 8
  %53 = load i32, ptr %52, align 8
  store i32 %53, ptr %14, align 4
  br label %54

54:                                               ; preds = %49, %43
  %55 = load i32, ptr %14, align 4
  %56 = icmp eq i32 %55, 27
  br i1 %56, label %60, label %57

57:                                               ; preds = %54
  %58 = load i32, ptr %14, align 4
  %59 = icmp eq i32 %58, 26
  br label %60

60:                                               ; preds = %57, %54
  %61 = phi i1 [ true, %54 ], [ %59, %57 ]
  br i1 %61, label %62, label %75

62:                                               ; preds = %60
  %63 = load ptr, ptr %19, align 8
  %64 = getelementptr inbounds %struct.Type_, ptr %63, i32 0, i32 7
  %65 = load ptr, ptr %64, align 8
  %66 = getelementptr inbounds %struct.Decl_, ptr %65, i32 0, i32 3
  %67 = load i64, ptr %66, align 8
  %68 = lshr i64 %67, 16
  %69 = and i64 %68, 1
  %70 = trunc i64 %69 to i1
  br i1 %70, label %71, label %75

71:                                               ; preds = %62
  %72 = load ptr, ptr %19, align 8
  %73 = load ptr, ptr %18, align 8
  %74 = call ptr @create_indirect_return_x86(ptr noundef %72, ptr noundef %73)
  store ptr %74, ptr %16, align 8
  br label %188

75:                                               ; preds = %62, %60
  %76 = load ptr, ptr %19, align 8
  %77 = call zeroext i1 @x86_should_return_type_in_reg(ptr noundef %76)
  br i1 %77, label %78, label %123

78:                                               ; preds = %75
  %79 = load ptr, ptr %19, align 8
  %80 = call ptr @type_abi_find_single_struct_element(ptr noundef %79)
  store ptr %80, ptr %22, align 8
  %81 = load ptr, ptr %22, align 8
  %82 = icmp ne ptr %81, null
  br i1 %82, label %83, label %121

83:                                               ; preds = %78
  %84 = load ptr, ptr %22, align 8
  store ptr %84, ptr %11, align 8
  %85 = load ptr, ptr %11, align 8
  %86 = load i32, ptr %85, align 8
  store i32 %86, ptr %12, align 4
  %87 = load i32, ptr %12, align 4
  %88 = icmp eq i32 %87, 31
  br i1 %88, label %89, label %94

89:                                               ; preds = %83
  %90 = load ptr, ptr %11, align 8
  %91 = getelementptr inbounds %struct.Type_, ptr %90, i32 0, i32 1
  %92 = load ptr, ptr %91, align 8
  %93 = load i32, ptr %92, align 8
  store i32 %93, ptr %12, align 4
  br label %94

94:                                               ; preds = %89, %83
  %95 = load i32, ptr %12, align 4
  %96 = icmp uge i32 %95, 13
  br i1 %96, label %97, label %100

97:                                               ; preds = %94
  %98 = load i32, ptr %12, align 4
  %99 = icmp ule i32 %98, 17
  br label %100

100:                                              ; preds = %97, %94
  %101 = phi i1 [ false, %94 ], [ %99, %97 ]
  br i1 %101, label %102, label %104

102:                                              ; preds = %100
  %103 = call ptr @abi_arg_new_expand()
  store ptr %103, ptr %16, align 8
  br label %188

104:                                              ; preds = %100
  %105 = load ptr, ptr %19, align 8
  store ptr %105, ptr %9, align 8
  %106 = load ptr, ptr %9, align 8
  %107 = load i32, ptr %106, align 8
  store i32 %107, ptr %10, align 4
  %108 = load i32, ptr %10, align 4
  %109 = icmp eq i32 %108, 31
  br i1 %109, label %110, label %115

110:                                              ; preds = %104
  %111 = load ptr, ptr %9, align 8
  %112 = getelementptr inbounds %struct.Type_, ptr %111, i32 0, i32 1
  %113 = load ptr, ptr %112, align 8
  %114 = load i32, ptr %113, align 8
  store i32 %114, ptr %10, align 4
  br label %115

115:                                              ; preds = %110, %104
  %116 = load i32, ptr %10, align 4
  %117 = icmp eq i32 %116, 23
  br i1 %117, label %118, label %120

118:                                              ; preds = %115
  %119 = call ptr @abi_arg_new_expand()
  store ptr %119, ptr %16, align 8
  br label %188

120:                                              ; preds = %115
  br label %121

121:                                              ; preds = %120, %78
  %122 = call ptr @abi_arg_new_direct_coerce_int()
  store ptr %122, ptr %16, align 8
  br label %188

123:                                              ; preds = %75
  %124 = load ptr, ptr %19, align 8
  %125 = load ptr, ptr %18, align 8
  %126 = call ptr @create_indirect_return_x86(ptr noundef %124, ptr noundef %125)
  store ptr %126, ptr %16, align 8
  br label %188

127:                                              ; preds = %40
  %128 = load ptr, ptr %19, align 8
  store ptr %128, ptr %8, align 8
  %129 = load ptr, ptr %8, align 8
  store ptr %129, ptr %4, align 8
  %130 = load ptr, ptr %4, align 8
  %131 = load i32, ptr %130, align 8
  store i32 %131, ptr %5, align 4
  %132 = load i32, ptr %5, align 4
  %133 = icmp eq i32 %132, 31
  br i1 %133, label %134, label %139

134:                                              ; preds = %127
  %135 = load ptr, ptr %4, align 8
  %136 = getelementptr inbounds %struct.Type_, ptr %135, i32 0, i32 1
  %137 = load ptr, ptr %136, align 8
  %138 = load i32, ptr %137, align 8
  store i32 %138, ptr %5, align 4
  br label %139

139:                                              ; preds = %134, %127
  %140 = load i32, ptr %5, align 4
  %141 = icmp uge i32 %140, 2
  br i1 %141, label %142, label %145

142:                                              ; preds = %139
  %143 = load i32, ptr %5, align 4
  %144 = icmp ule i32 %143, 12
  br label %145

145:                                              ; preds = %142, %139
  %146 = phi i1 [ false, %139 ], [ %144, %142 ]
  br i1 %146, label %147, label %154

147:                                              ; preds = %145
  %148 = load ptr, ptr %8, align 8
  %149 = getelementptr inbounds %struct.Type_, ptr %148, i32 0, i32 7
  %150 = load i32, ptr %149, align 8
  %151 = and i32 %150, 255
  %152 = load i32, ptr getelementptr inbounds (%struct.PlatformTarget, ptr @platform_target, i32 0, i32 33), align 8
  %153 = icmp ult i32 %151, %152
  br label %154

154:                                              ; preds = %147, %145
  %155 = phi i1 [ false, %145 ], [ %153, %147 ]
  br i1 %155, label %156, label %159

156:                                              ; preds = %154
  %157 = load ptr, ptr %19, align 8
  %158 = call ptr @abi_arg_new_direct_int_ext(ptr noundef %157)
  store ptr %158, ptr %16, align 8
  br label %188

159:                                              ; preds = %154
  %160 = load ptr, ptr %19, align 8
  store ptr %160, ptr %6, align 8
  %161 = load ptr, ptr %6, align 8
  %162 = load i32, ptr %161, align 8
  store i32 %162, ptr %7, align 4
  %163 = load i32, ptr %7, align 4
  %164 = icmp eq i32 %163, 31
  br i1 %164, label %165, label %170

165:                                              ; preds = %159
  %166 = load ptr, ptr %6, align 8
  %167 = getelementptr inbounds %struct.Type_, ptr %166, i32 0, i32 1
  %168 = load ptr, ptr %167, align 8
  %169 = load i32, ptr %168, align 8
  store i32 %169, ptr %7, align 4
  br label %170

170:                                              ; preds = %165, %159
  %171 = load i32, ptr %7, align 4
  %172 = icmp uge i32 %171, 3
  br i1 %172, label %173, label %176

173:                                              ; preds = %170
  %174 = load i32, ptr %7, align 4
  %175 = icmp ule i32 %174, 12
  br label %176

176:                                              ; preds = %173, %170
  %177 = phi i1 [ false, %170 ], [ %175, %173 ]
  br i1 %177, label %178, label %186

178:                                              ; preds = %176
  %179 = load ptr, ptr %19, align 8
  %180 = call i32 @type_size(ptr noundef %179)
  %181 = icmp ugt i32 %180, 8
  br i1 %181, label %182, label %186

182:                                              ; preds = %178
  %183 = load ptr, ptr %19, align 8
  %184 = load ptr, ptr %18, align 8
  %185 = call ptr @create_indirect_return_x86(ptr noundef %183, ptr noundef %184)
  store ptr %185, ptr %16, align 8
  br label %188

186:                                              ; preds = %178, %176
  %187 = call ptr @abi_arg_new_direct()
  store ptr %187, ptr %16, align 8
  br label %188

188:                                              ; preds = %186, %182, %156, %123, %121, %118, %102, %71, %38, %31
  %189 = load ptr, ptr %16, align 8
  ret ptr %189
}