; Function Attrs: nounwind uwtable
define dso_local ptr @x86_classify_return(i32 %0, ptr nocapture noundef %1, ptr nocapture noundef readonly %2) local_unnamed_addr #0 {
  %4 = tail call fastcc ptr @type_lowering(ptr noundef %2)
  %5 = getelementptr inbounds i8, ptr %4, i64 8
  %6 = load ptr, ptr %5, align 8
  %7 = load ptr, ptr @type_void, align 8
  %8 = icmp eq ptr %6, %7
  br i1 %8, label %9, label %11

9:                                                ; preds = %3
  %10 = tail call ptr @abi_arg_ignore() #4
  br label %create_indirect_return_x86.exit

11:                                               ; preds = %3
  %12 = load i32, ptr %4, align 8
  %13 = icmp eq i32 %12, 37
  br i1 %13, label %14, label %16

14:                                               ; preds = %11
  %15 = tail call ptr @abi_arg_new_direct() #4
  br label %create_indirect_return_x86.exit

16:                                               ; preds = %11
  %17 = tail call zeroext i1 @type_is_abi_aggregate(ptr noundef nonnull %4) #4
  %18 = load i32, ptr %4, align 8
  %19 = icmp eq i32 %18, 31
  br i1 %17, label %20, label %83

20:                                               ; preds = %16
  br i1 %19, label %21, label %24

21:                                               ; preds = %20
  %22 = load ptr, ptr %5, align 8
  %23 = load i32, ptr %22, align 8
  br label %24

24:                                               ; preds = %21, %20
  %.051 = phi i32 [ %23, %21 ], [ %18, %20 ]
  %25 = and i32 %.051, -2
  %26 = icmp eq i32 %25, 26
  br i1 %26, label %27, label %44

27:                                               ; preds = %24
  %28 = getelementptr inbounds i8, ptr %4, i64 56
  %29 = load ptr, ptr %28, align 8
  %30 = getelementptr inbounds i8, ptr %29, i64 24
  %31 = load i64, ptr %30, align 8
  %32 = and i64 %31, 65536
  %.not = icmp eq i64 %32, 0
  br i1 %.not, label %44, label %33

33:                                               ; preds = %27
  %34 = tail call ptr @abi_arg_new_indirect_not_by_val(ptr noundef nonnull %4) #4
  %35 = load i32, ptr %1, align 4
  %.not.i = icmp eq i32 %35, 0
  br i1 %.not.i, label %create_indirect_return_x86.exit, label %36

36:                                               ; preds = %33
  %37 = add i32 %35, -1
  store i32 %37, ptr %1, align 4
  %38 = load i8, ptr getelementptr inbounds (%struct.PlatformTarget, ptr @platform_target, i64 0, i32 16), align 8
  %39 = and i8 %38, 4
  %.not8.i = icmp eq i8 %39, 0
  br i1 %.not8.i, label %40, label %create_indirect_return_x86.exit

40:                                               ; preds = %36
  %41 = getelementptr inbounds i8, ptr %34, i64 5
  %42 = load i8, ptr %41, align 1
  %43 = or i8 %42, 1
  store i8 %43, ptr %41, align 1
  br label %create_indirect_return_x86.exit

44:                                               ; preds = %27, %24
  %45 = tail call fastcc zeroext i1 @x86_should_return_type_in_reg(ptr noundef nonnull %4)
  br i1 %45, label %46, label %72

46:                                               ; preds = %44
  %47 = tail call ptr @type_abi_find_single_struct_element(ptr noundef nonnull %4) #4
  %.not59 = icmp eq ptr %47, null
  br i1 %.not59, label %70, label %48

48:                                               ; preds = %46
  %49 = load i32, ptr %47, align 8
  %50 = icmp eq i32 %49, 31
  br i1 %50, label %51, label %55

51:                                               ; preds = %48
  %52 = getelementptr inbounds i8, ptr %47, i64 8
  %53 = load ptr, ptr %52, align 8
  %54 = load i32, ptr %53, align 8
  br label %55

55:                                               ; preds = %51, %48
  %.050 = phi i32 [ %54, %51 ], [ %49, %48 ]
  %56 = add i32 %.050, -13
  %57 = icmp ult i32 %56, 5
  br i1 %57, label %58, label %60

58:                                               ; preds = %55
  %59 = tail call ptr @abi_arg_new_expand() #4
  br label %create_indirect_return_x86.exit

60:                                               ; preds = %55
  %61 = load i32, ptr %4, align 8
  %62 = icmp eq i32 %61, 31
  br i1 %62, label %63, label %66

63:                                               ; preds = %60
  %64 = load ptr, ptr %5, align 8
  %65 = load i32, ptr %64, align 8
  br label %66

66:                                               ; preds = %63, %60
  %.049 = phi i32 [ %65, %63 ], [ %61, %60 ]
  %67 = icmp eq i32 %.049, 23
  br i1 %67, label %68, label %70

68:                                               ; preds = %66
  %69 = tail call ptr @abi_arg_new_expand() #4
  br label %create_indirect_return_x86.exit

70:                                               ; preds = %66, %46
  %71 = tail call ptr @abi_arg_new_direct_coerce_int() #4
  br label %create_indirect_return_x86.exit

72:                                               ; preds = %44
  %73 = tail call ptr @abi_arg_new_indirect_not_by_val(ptr noundef nonnull %4) #4
  %74 = load i32, ptr %1, align 4
  %.not.i60 = icmp eq i32 %74, 0
  br i1 %.not.i60, label %create_indirect_return_x86.exit, label %75

75:                                               ; preds = %72
  %76 = add i32 %74, -1
  store i32 %76, ptr %1, align 4
  %77 = load i8, ptr getelementptr inbounds (%struct.PlatformTarget, ptr @platform_target, i64 0, i32 16), align 8
  %78 = and i8 %77, 4
  %.not8.i61 = icmp eq i8 %78, 0
  br i1 %.not8.i61, label %79, label %create_indirect_return_x86.exit

79:                                               ; preds = %75
  %80 = getelementptr inbounds i8, ptr %73, i64 5
  %81 = load i8, ptr %80, align 1
  %82 = or i8 %81, 1
  store i8 %82, ptr %80, align 1
  br label %create_indirect_return_x86.exit

83:                                               ; preds = %16
  br i1 %19, label %84, label %87

84:                                               ; preds = %83
  %85 = load ptr, ptr %5, align 8
  %86 = load i32, ptr %85, align 8
  br label %87

87:                                               ; preds = %84, %83
  %.0 = phi i32 [ %86, %84 ], [ %18, %83 ]
  %88 = add i32 %.0, -2
  %89 = icmp ult i32 %88, 11
  br i1 %89, label %90, label %.critedge

90:                                               ; preds = %87
  %91 = getelementptr inbounds i8, ptr %4, i64 56
  %92 = load i32, ptr %91, align 8
  %93 = and i32 %92, 255
  %94 = load i32, ptr getelementptr inbounds (%struct.PlatformTarget, ptr @platform_target, i64 0, i32 33), align 8
  %95 = icmp ult i32 %93, %94
  br i1 %95, label %96, label %.critedge

96:                                               ; preds = %90
  %97 = tail call ptr @abi_arg_new_direct_int_ext(ptr noundef nonnull %4) #4
  br label %create_indirect_return_x86.exit

.critedge:                                        ; preds = %87, %90
  br i1 %19, label %98, label %101

98:                                               ; preds = %.critedge
  %99 = load ptr, ptr %5, align 8
  %100 = load i32, ptr %99, align 8
  br label %101

101:                                              ; preds = %98, %.critedge
  %.048 = phi i32 [ %100, %98 ], [ %18, %.critedge ]
  %102 = add i32 %.048, -3
  %103 = icmp ult i32 %102, 10
  br i1 %103, label %104, label %118

104:                                              ; preds = %101
  %105 = tail call i32 @type_size(ptr noundef nonnull %4) #4
  %106 = icmp ugt i32 %105, 8
  br i1 %106, label %107, label %118

107:                                              ; preds = %104
  %108 = tail call ptr @abi_arg_new_indirect_not_by_val(ptr noundef nonnull %4) #4
  %109 = load i32, ptr %1, align 4
  %.not.i63 = icmp eq i32 %109, 0
  br i1 %.not.i63, label %create_indirect_return_x86.exit, label %110

110:                                              ; preds = %107
  %111 = add i32 %109, -1
  store i32 %111, ptr %1, align 4
  %112 = load i8, ptr getelementptr inbounds (%struct.PlatformTarget, ptr @platform_target, i64 0, i32 16), align 8
  %113 = and i8 %112, 4
  %.not8.i64 = icmp eq i8 %113, 0
  br i1 %.not8.i64, label %114, label %create_indirect_return_x86.exit

114:                                              ; preds = %110
  %115 = getelementptr inbounds i8, ptr %108, i64 5
  %116 = load i8, ptr %115, align 1
  %117 = or i8 %116, 1
  store i8 %117, ptr %115, align 1
  br label %create_indirect_return_x86.exit

118:                                              ; preds = %104, %101
  %119 = tail call ptr @abi_arg_new_direct() #4
  br label %create_indirect_return_x86.exit

create_indirect_return_x86.exit:                  ; preds = %114, %110, %107, %79, %75, %72, %40, %36, %33, %118, %96, %70, %68, %58, %14, %9
  %.052 = phi ptr [ %10, %9 ], [ %15, %14 ], [ %59, %58 ], [ %69, %68 ], [ %71, %70 ], [ %97, %96 ], [ %119, %118 ], [ %34, %33 ], [ %34, %36 ], [ %34, %40 ], [ %73, %72 ], [ %73, %75 ], [ %73, %79 ], [ %108, %107 ], [ %108, %110 ], [ %108, %114 ]
  ret ptr %.052
}